; Function Attrs: nounwind uwtable
define i32 @fdt_node_check_compatible(ptr noundef %0, i32 noundef %1, ptr noundef readonly captures(none) %2) local_unnamed_addr #0 {
  %4 = alloca i32, align 4
  %5 = alloca i32, align 4
  call void @llvm.lifetime.start.p0(i64 4, ptr nonnull %5) #9
  call void @llvm.lifetime.start.p0(i64 4, ptr nonnull %4) #9
  %6 = call fastcc ptr @fdt_get_property_namelen_(ptr noundef %0, i32 noundef %1, ptr noundef nonnull readonly @.str.3, i32 noundef 10, ptr noundef nonnull %5, ptr noundef nonnull %4)
  %.not.i.i = icmp eq ptr %6, null
  br i1 %.not.i.i, label %51, label %7

7:                                                ; preds = %3
  %8 = getelementptr inbounds nuw i8, ptr %0, i64 20
  %9 = load i8, ptr %8, align 1, !tbaa !3
  %10 = zext i8 %9 to i32
  %11 = shl nuw i32 %10, 24
  %12 = getelementptr inbounds nuw i8, ptr %0, i64 21
  %13 = load i8, ptr %12, align 1, !tbaa !3
  %14 = zext i8 %13 to i32
  %15 = shl nuw nsw i32 %14, 16
  %16 = or disjoint i32 %15, %11
  %17 = getelementptr inbounds nuw i8, ptr %0, i64 22
  %18 = load i8, ptr %17, align 1, !tbaa !3
  %19 = zext i8 %18 to i32
  %20 = shl nuw nsw i32 %19, 8
  %21 = or disjoint i32 %16, %20
  %22 = getelementptr inbounds nuw i8, ptr %0, i64 23
  %23 = load i8, ptr %22, align 1, !tbaa !3
  %24 = zext i8 %23 to i32
  %25 = or disjoint i32 %21, %24
  %26 = icmp ult i32 %25, 16
  br i1 %26, label %27, label %50

27:                                               ; preds = %7
  %28 = load i32, ptr %4, align 4, !tbaa !6
  %29 = and i32 %28, 7
  %.not11.i.i = icmp eq i32 %29, 4
  br i1 %.not11.i.i, label %50, label %30

30:                                               ; preds = %27
  %31 = getelementptr inbounds nuw i8, ptr %6, i64 4
  %32 = load i8, ptr %31, align 1, !tbaa !3
  %33 = zext i8 %32 to i32
  %34 = shl nuw i32 %33, 24
  %35 = getelementptr inbounds nuw i8, ptr %6, i64 5
  %36 = load i8, ptr %35, align 1, !tbaa !3
  %37 = zext i8 %36 to i32
  %38 = shl nuw nsw i32 %37, 16
  %39 = or disjoint i32 %38, %34
  %40 = getelementptr inbounds nuw i8, ptr %6, i64 6
  %41 = load i8, ptr %40, align 1, !tbaa !3
  %42 = zext i8 %41 to i32
  %43 = shl nuw nsw i32 %42, 8
  %44 = or disjoint i32 %39, %43
  %45 = getelementptr inbounds nuw i8, ptr %6, i64 7
  %46 = load i8, ptr %45, align 1, !tbaa !3
  %47 = zext i8 %46 to i32
  %48 = or disjoint i32 %44, %47
  %49 = icmp ugt i32 %48, 7
  br i1 %49, label %53, label %50

50:                                               ; preds = %30, %27, %7
  br label %53

51:                                               ; preds = %3
  call void @llvm.lifetime.end.p0(i64 4, ptr nonnull %4) #9
  %52 = load i32, ptr %5, align 4, !tbaa !6
  br label %fdt_stringlist_contains.exit

53:                                               ; preds = %30, %50
  %.sink = phi i64 [ 12, %50 ], [ 16, %30 ]
  call void @llvm.lifetime.end.p0(i64 4, ptr nonnull %4) #9
  %54 = load i32, ptr %5, align 4, !tbaa !6
  %55 = call i64 @strlen(ptr noundef nonnull readonly dereferenceable(1) %2) #10
  %56 = trunc i64 %55 to i32
  %57 = shl i64 %55, 32
  %sext.i = add i64 %57, 4294967296
  %58 = ashr exact i64 %sext.i, 32
  %.not18.i = icmp slt i32 %54, %56
  br i1 %.not18.i, label %fdt_stringlist_contains.exit, label %.lr.ph.i.preheader

.lr.ph.i.preheader:                               ; preds = %53
  %59 = getelementptr inbounds nuw i8, ptr %6, i64 %.sink
  br label %.lr.ph.i

.lr.ph.i:                                         ; preds = %.lr.ph.i.preheader, %64
  %.01320.i = phi ptr [ %70, %64 ], [ %59, %.lr.ph.i.preheader ]
  %.01419.i = phi i32 [ %69, %64 ], [ %54, %.lr.ph.i.preheader ]
  %bcmp.i = call i32 @bcmp(ptr nonnull readonly %2, ptr nonnull %.01320.i, i64 %58)
  %60 = icmp eq i32 %bcmp.i, 0
  br i1 %60, label %fdt_stringlist_contains.exit, label %61

61:                                               ; preds = %.lr.ph.i
  %62 = sext i32 %.01419.i to i64
  %63 = call ptr @memchr(ptr noundef nonnull %.01320.i, i32 noundef 0, i64 noundef %62) #10
  %.not17.i = icmp eq ptr %63, null
  br i1 %.not17.i, label %fdt_stringlist_contains.exit, label %64

64:                                               ; preds = %61
  %65 = ptrtoint ptr %63 to i64
  %66 = ptrtoint ptr %.01320.i to i64
  %67 = xor i64 %65, -1
  %.neg.i = add i64 %67, %66
  %68 = trunc i64 %.neg.i to i32
  %69 = add i32 %.01419.i, %68
  %70 = getelementptr inbounds nuw i8, ptr %63, i64 1
  %.not.i = icmp slt i32 %69, %56
  br i1 %.not.i, label %fdt_stringlist_contains.exit, label %.lr.ph.i, !llvm.loop !26

fdt_stringlist_contains.exit:                     ; preds = %64, %61, %.lr.ph.i, %53, %51
  %.0 = phi i32 [ %52, %51 ], [ 1, %53 ], [ 0, %.lr.ph.i ], [ 1, %61 ], [ 1, %64 ]
  call void @llvm.lifetime.end.p0(i64 4, ptr nonnull %5) #9
  ret i32 %.0
}